Certificate:
    Data:
        Version: 3 (0x2)
        Serial Number:
            b9:90:a2:bf:62:69:17:9c
        Signature Algorithm: sha1WithRSAEncryption
        Issuer: C=JP, ST=Shimane, L=Matz-e city, O=Ruby Core Team, CN=Ruby Test CA/emailAddress=security@ruby-lang.org
        Validity
            Not Before: Jan  3 01:34:17 2014 GMT
            Not After : Jan  2 01:34:17 2019 GMT
        Subject: C=JP, ST=Shimane, L=Matz-e city, O=Ruby Core Team, CN=Ruby Test CA/emailAddress=security@ruby-lang.org
        Subject Public Key Info:
            Public Key Algorithm: rsaEncryption
            RSA Public Key: (1024 bit)
                Modulus (1024 bit):
                    00:db:75:d0:45:de:b1:df:bf:71:a0:0e:b0:a5:e6:
                    bc:f4:1c:9d:e5:25:67:64:c5:7b:cb:f1:af:c6:be:
                    9a:aa:ea:7e:0f:cc:05:af:ef:40:69:06:b2:c9:13:
                    9d:7e:eb:a2:06:e2:ea:7d:07:c7:c7:99:c7:fb:d5:
                    b8:eb:63:77:62:2b:18:12:c3:53:58:d0:f5:c7:40:
                    0c:01:d1:26:82:34:16:09:e3:dc:65:f4:dc:bb:5d:
                    a5:41:60:e7:a9:74:ba:d7:4c:b6:a3:9c:c5:8c:89:
                    af:cb:e8:9f:05:fe:ea:fe:64:24:bf:e7:ed:e3:f6:
                    d0:fc:d6:eb:fc:06:82:10:fb
                Exponent: 65537 (0x10001)
        X509v3 extensions:
            X509v3 Subject Key Identifier: 
                E8:7E:58:AC:13:7B:03:22:8D:9E:AF:32:0B:84:89:80:80:0C:1E:C2
            X509v3 Authority Key Identifier: 
                keyid:E8:7E:58:AC:13:7B:03:22:8D:9E:AF:32:0B:84:89:80:80:0C:1E:C2
                DirName:/C=JP/ST=Shimane/L=Matz-e city/O=Ruby Core Team/CN=Ruby Test CA/emailAddress=security@ruby-lang.org
                serial:B9:90:A2:BF:62:69:17:9C

            X509v3 Basic Constraints: 
                CA:TRUE
    Signature Algorithm: sha1WithRSAEncryption
        8f:77:06:4e:31:72:12:ee:68:09:70:27:d4:31:85:ef:10:95:
        f9:0f:2b:66:63:08:37:88:6e:b7:9b:40:3e:18:77:33:86:e8:
        61:6a:b7:3c:cb:c7:a6:d6:d5:92:6a:1f:56:d0:9f:5c:32:56:
        d3:37:52:fe:0e:20:c2:7a:0d:fe:2d:3c:81:da:b8:7f:4d:6a:
        08:01:d9:be:7a:a2:15:be:a6:ce:49:64:90:8c:9a:ca:6e:2e:
        84:48:1d:94:19:56:94:46:aa:25:9b:68:c2:80:60:bf:cb:2e:
        35:03:ea:0a:65:5a:33:38:c6:cc:81:46:c0:bc:36:86:96:39:
        10:7d
-----BEGIN CERTIFICATE-----
MIIDjTCCAvagAwIBAgIJALmQor9iaRecMA0GCSqGSIb3DQEBBQUAMIGMMQswCQYD
VQQGEwJKUDEQMA4GA1UECBMHU2hpbWFuZTEUMBIGA1UEBxMLTWF0ei1lIGNpdHkx
FzAVBgNVBAoTDlJ1YnkgQ29yZSBUZWFtMRUwEwYDVQQDEwxSdWJ5IFRlc3QgQ0Ex
JTAjBgkqhkiG9w0BCQEWFnNlY3VyaXR5QHJ1YnktbGFuZy5vcmcwHhcNMTQwMTAz
MDEzNDE3WhcNMTkwMTAyMDEzNDE3WjCBjDELMAkGA1UEBhMCSlAxEDAOBgNVBAgT
B1NoaW1hbmUxFDASBgNVBAcTC01hdHotZSBjaXR5MRcwFQYDVQQKEw5SdWJ5IENv
cmUgVGVhbTEVMBMGA1UEAxMMUnVieSBUZXN0IENBMSUwIwYJKoZIhvcNAQkBFhZz
ZWN1cml0eUBydWJ5LWxhbmcub3JnMIGfMA0GCSqGSIb3DQEBAQUAA4GNADCBiQKB
gQDbddBF3rHfv3GgDrCl5rz0HJ3lJWdkxXvL8a/Gvpqq6n4PzAWv70BpBrLJE51+
66IG4up9B8fHmcf71bjrY3diKxgSw1NY0PXHQAwB0SaCNBYJ49xl9Ny7XaVBYOep
dLrXTLajnMWMia/L6J8F/ur+ZCS/5+3j9tD81uv8BoIQ+wIDAQABo4H0MIHxMB0G
A1UdDgQWBBToflisE3sDIo2erzILhImAgAwewjCBwQYDVR0jBIG5MIG2gBToflis
E3sDIo2erzILhImAgAwewqGBkqSBjzCBjDELMAkGA1UEBhMCSlAxEDAOBgNVBAgT
B1NoaW1hbmUxFDASBgNVBAcTC01hdHotZSBjaXR5MRcwFQYDVQQKEw5SdWJ5IENv
cmUgVGVhbTEVMBMGA1UEAxMMUnVieSBUZXN0IENBMSUwIwYJKoZIhvcNAQkBFhZz
ZWN1cml0eUBydWJ5LWxhbmcub3JnggkAuZCiv2JpF5wwDAYDVR0TBAUwAwEB/zAN
BgkqhkiG9w0BAQUFAAOBgQCPdwZOMXIS7mgJcCfUMYXvEJX5DytmYwg3iG63m0A+
GHczhuhharc8y8em1tWSah9W0J9cMlbTN1L+DiDCeg3+LTyB2rh/TWoIAdm+eqIV
vqbOSWSQjJrKbi6ESB2UGVaURqolm2jCgGC/yy41A+oKZVozOMbMgUbAvDaGljkQ
fQ==
-----END CERTIFICATE-----
