Certificate:
    Data:
        Version: 3 (0x2)
        Serial Number:
            d2:9c:5c:81:a3:b0:3b:ec
        Signature Algorithm: sha1WithRSAEncryption
        Issuer: C=JP, ST=Shimane, O=Ruby Core Team, CN=Ruby Test CA
        Validity
            Not Before: Dec 22 08:35:19 2007 GMT
            Not After : Dec 21 08:35:19 2010 GMT
        Subject: C=JP, ST=Shimane, O=Ruby Core Team, CN=Ruby Test CA
        Subject Public Key Info:
            Public Key Algorithm: rsaEncryption
            RSA Public Key: (1024 bit)
                Modulus (1024 bit):
                    00:ee:b1:1a:06:25:1f:29:80:a1:59:ef:0f:0d:8b:
                    5a:88:40:73:56:95:d9:db:b4:71:3c:36:7f:b4:fc:
                    68:51:54:8b:8d:9e:41:27:fb:31:d1:7a:6c:5c:21:
                    30:3d:22:f6:7a:92:c3:fa:b3:85:36:44:76:22:6c:
                    08:82:78:89:7d:c3:19:d4:ec:7d:05:5b:75:cd:38:
                    1c:89:03:ef:02:aa:7e:6d:5b:36:ea:ad:e2:0b:ec:
                    4b:e2:36:bf:c0:49:44:93:a6:cc:da:40:be:5f:c0:
                    75:3b:be:c0:28:db:42:57:90:3b:83:af:2d:60:9a:
                    c6:b1:bc:5c:68:12:2d:70:25
                Exponent: 65537 (0x10001)
        X509v3 extensions:
            X509v3 Subject Key Identifier: 
                AE:F5:39:FE:D2:35:A2:2C:1E:CB:0E:08:4C:0E:5A:DC:44:99:E2:9C
            X509v3 Authority Key Identifier: 
                keyid:AE:F5:39:FE:D2:35:A2:2C:1E:CB:0E:08:4C:0E:5A:DC:44:99:E2:9C
                DirName:/C=JP/ST=Shimane/O=Ruby Core Team/CN=Ruby Test CA
                serial:D2:9C:5C:81:A3:B0:3B:EC

            X509v3 Basic Constraints: 
                CA:TRUE
    Signature Algorithm: sha1WithRSAEncryption
        9e:28:89:81:83:55:1b:38:cb:85:86:ec:ee:cc:f4:cf:f0:47:
        61:72:07:f2:2e:ca:67:f7:c8:29:b5:3c:34:d2:cf:c2:f7:9c:
        4d:ce:8d:37:24:57:85:c1:0e:27:86:81:15:99:ec:af:05:ae:
        09:96:f6:f7:5a:c0:d2:a4:82:ed:d6:d3:26:e9:3d:50:50:0c:
        71:c2:6e:9a:50:30:73:8a:94:0d:c1:9c:1a:da:76:80:b8:8b:
        46:ec:10:93:6c:8d:cb:ab:eb:12:5d:e0:6f:1a:5a:ac:5c:34:
        12:df:7b:a7:dc:b6:0f:d6:3e:ac:2f:69:db:11:aa:1d:c4:90:
        f6:fa
-----BEGIN CERTIFICATE-----
MIICzjCCAjegAwIBAgIJANKcXIGjsDvsMA0GCSqGSIb3DQEBBQUAME8xCzAJBgNV
BAYTAkpQMRAwDgYDVQQIEwdTaGltYW5lMRcwFQYDVQQKEw5SdWJ5IENvcmUgVGVh
bTEVMBMGA1UEAxMMUnVieSBUZXN0IENBMB4XDTA3MTIyMjA4MzUxOVoXDTEwMTIy
MTA4MzUxOVowTzELMAkGA1UEBhMCSlAxEDAOBgNVBAgTB1NoaW1hbmUxFzAVBgNV
BAoTDlJ1YnkgQ29yZSBUZWFtMRUwEwYDVQQDEwxSdWJ5IFRlc3QgQ0EwgZ8wDQYJ
KoZIhvcNAQEBBQADgY0AMIGJAoGBAO6xGgYlHymAoVnvDw2LWohAc1aV2du0cTw2
f7T8aFFUi42eQSf7MdF6bFwhMD0i9nqSw/qzhTZEdiJsCIJ4iX3DGdTsfQVbdc04
HIkD7wKqfm1bNuqt4gvsS+I2v8BJRJOmzNpAvl/AdTu+wCjbQleQO4OvLWCaxrG8
XGgSLXAlAgMBAAGjgbEwga4wHQYDVR0OBBYEFK71Of7SNaIsHssOCEwOWtxEmeKc
MH8GA1UdIwR4MHaAFK71Of7SNaIsHssOCEwOWtxEmeKcoVOkUTBPMQswCQYDVQQG
EwJKUDEQMA4GA1UECBMHU2hpbWFuZTEXMBUGA1UEChMOUnVieSBDb3JlIFRlYW0x
FTATBgNVBAMTDFJ1YnkgVGVzdCBDQYIJANKcXIGjsDvsMAwGA1UdEwQFMAMBAf8w
DQYJKoZIhvcNAQEFBQADgYEAniiJgYNVGzjLhYbs7sz0z/BHYXIH8i7KZ/fIKbU8
NNLPwvecTc6NNyRXhcEOJ4aBFZnsrwWuCZb291rA0qSC7dbTJuk9UFAMccJumlAw
c4qUDcGcGtp2gLiLRuwQk2yNy6vrEl3gbxparFw0Et97p9y2D9Y+rC9p2xGqHcSQ
9vo=
-----END CERTIFICATE-----
