Certificate:
    Data:
        Version: 3 (0x2)
        Serial Number:
            23:47:84:0c:27:d1:e9:46:8b:b1:7e:a4:eb:aa:3b:e7:8c:35:47:ff
        Signature Algorithm: sha256WithRSAEncryption
        Issuer: C = JP, ST = Shimane, L = Matz-e city, O = Ruby Core Team, CN = Ruby Test CA, emailAddress = security@ruby-lang.org
        Validity
            Not Before: Jan  1 11:02:41 2024 GMT
            Not After : Dec 30 11:02:41 2028 GMT
        Subject: C = JP, ST = Shimane, L = Matz-e city, O = Ruby Core Team, CN = Ruby Test CA, emailAddress = security@ruby-lang.org
        Subject Public Key Info:
            Public Key Algorithm: rsaEncryption
                Public-Key: (2048 bit)
                Modulus:
                    00:e8:da:9c:01:2e:2b:10:ec:49:cd:5e:07:13:07:
                    9c:70:9e:c6:74:bc:13:c2:e1:6f:c6:82:fd:e3:48:
                    e0:2c:a5:68:c7:9e:42:de:60:54:65:e6:6a:14:57:
                    7a:30:d0:cc:b5:b6:d9:c3:d2:df:c9:25:97:54:67:
                    cf:f6:be:5e:cb:8b:ee:03:c5:e1:e2:f9:e7:f7:d1:
                    0c:47:f0:b8:da:33:5a:ad:41:ad:e7:b5:a2:7b:b7:
                    bf:30:da:60:f8:e3:54:a2:bc:3a:fd:1b:74:d9:dc:
                    74:42:e9:29:be:df:ac:b4:4f:eb:32:f4:06:f1:e1:
                    8c:4b:a8:8b:fb:29:e7:b1:bf:1d:01:ee:73:0f:f9:
                    40:dc:d5:15:79:d9:c6:73:d0:c0:dd:cb:e4:da:19:
                    47:80:c6:14:04:72:fd:9a:7c:8f:11:82:76:49:04:
                    79:cc:f2:5c:31:22:95:13:3e:5d:40:a6:4d:e0:a3:
                    02:26:7d:52:3b:bb:ed:65:a1:0f:ed:6b:b0:3c:d4:
                    de:61:15:5e:d3:dd:68:09:9f:4a:57:a5:c2:a9:6d:
                    86:92:c5:f4:a4:d4:b7:13:3b:52:63:24:05:e2:cc:
                    e3:8a:3c:d4:35:34:2b:10:bb:58:72:e7:e1:8d:1d:
                    74:8c:61:16:20:3d:d0:1c:4e:8f:6e:fd:fe:64:10:
                    4f:41
                Exponent: 65537 (0x10001)
        X509v3 extensions:
            X509v3 Subject Key Identifier: 
                ED:28:C2:7E:AB:4B:C8:E8:FE:55:6D:66:95:31:1C:2D:60:F9:02:36
            X509v3 Authority Key Identifier: 
                ED:28:C2:7E:AB:4B:C8:E8:FE:55:6D:66:95:31:1C:2D:60:F9:02:36
            X509v3 Basic Constraints: critical
                CA:TRUE
    Signature Algorithm: sha256WithRSAEncryption
    Signature Value:
        1f:33:d1:7a:75:b6:ce:0d:1e:6e:4b:16:f5:6b:d1:53:68:33:
        30:ee:5a:b6:f2:7f:1c:99:23:44:a8:ae:6e:23:49:44:2b:72:
        be:5c:86:e7:55:25:44:47:21:19:3c:09:97:55:73:3b:de:d1:
        e7:a4:ac:4c:b0:03:06:12:0a:0d:32:b2:a6:a0:28:3a:30:b1:
        b5:3c:5b:8c:35:31:77:9f:fd:be:1c:34:54:c9:60:4f:32:39:
        02:a7:94:56:8b:7f:46:ec:70:1e:f0:4f:de:2c:b7:19:b2:0d:
        02:05:5c:e5:d4:48:eb:a3:c3:f2:fc:73:19:ba:17:cd:39:f6:
        ab:99:7c:dc:d3:58:c2:8c:ae:78:5d:d9:2e:24:9d:04:67:a5:
        11:8e:d9:b6:fd:f8:15:99:0c:c7:01:e7:07:74:92:d8:9f:22:
        5b:cc:2e:e7:bd:e3:0a:b9:2e:c2:59:11:75:6f:40:43:fc:04:
        8f:b9:10:48:01:d0:9e:ec:a5:ca:c9:4f:a3:92:5e:65:0e:c1:
        df:8b:d6:44:a2:53:7a:b2:ed:86:ca:34:4f:b4:66:d6:3d:03:
        60:a4:05:1f:8b:d8:24:93:2a:a1:f6:87:d2:78:23:b7:f2:b8:
        77:7a:02:4b:2b:a7:b3:10:1a:17:5c:8e:1f:49:a0:5b:bb:ca:
        03:2c:4b:29
-----BEGIN CERTIFICATE-----
MIID+zCCAuOgAwIBAgIUI0eEDCfR6UaLsX6k66o754w1R/8wDQYJKoZIhvcNAQEL
BQAwgYwxCzAJBgNVBAYTAkpQMRAwDgYDVQQIDAdTaGltYW5lMRQwEgYDVQQHDAtN
YXR6LWUgY2l0eTEXMBUGA1UECgwOUnVieSBDb3JlIFRlYW0xFTATBgNVBAMMDFJ1
YnkgVGVzdCBDQTElMCMGCSqGSIb3DQEJARYWc2VjdXJpdHlAcnVieS1sYW5nLm9y
ZzAeFw0yNDAxMDExMTAyNDFaFw0yODEyMzAxMTAyNDFaMIGMMQswCQYDVQQGEwJK
UDEQMA4GA1UECAwHU2hpbWFuZTEUMBIGA1UEBwwLTWF0ei1lIGNpdHkxFzAVBgNV
BAoMDlJ1YnkgQ29yZSBUZWFtMRUwEwYDVQQDDAxSdWJ5IFRlc3QgQ0ExJTAjBgkq
hkiG9w0BCQEWFnNlY3VyaXR5QHJ1YnktbGFuZy5vcmcwggEiMA0GCSqGSIb3DQEB
AQUAA4IBDwAwggEKAoIBAQDo2pwBLisQ7EnNXgcTB5xwnsZ0vBPC4W/Ggv3jSOAs
pWjHnkLeYFRl5moUV3ow0My1ttnD0t/JJZdUZ8/2vl7Li+4DxeHi+ef30QxH8Lja
M1qtQa3ntaJ7t78w2mD441SivDr9G3TZ3HRC6Sm+36y0T+sy9Abx4YxLqIv7Keex
vx0B7nMP+UDc1RV52cZz0MDdy+TaGUeAxhQEcv2afI8RgnZJBHnM8lwxIpUTPl1A
pk3gowImfVI7u+1loQ/ta7A81N5hFV7T3WgJn0pXpcKpbYaSxfSk1LcTO1JjJAXi
zOOKPNQ1NCsQu1hy5+GNHXSMYRYgPdAcTo9u/f5kEE9BAgMBAAGjUzBRMB0GA1Ud
DgQWBBTtKMJ+q0vI6P5VbWaVMRwtYPkCNjAfBgNVHSMEGDAWgBTtKMJ+q0vI6P5V
bWaVMRwtYPkCNjAPBgNVHRMBAf8EBTADAQH/MA0GCSqGSIb3DQEBCwUAA4IBAQAf
M9F6dbbODR5uSxb1a9FTaDMw7lq28n8cmSNEqK5uI0lEK3K+XIbnVSVERyEZPAmX
VXM73tHnpKxMsAMGEgoNMrKmoCg6MLG1PFuMNTF3n/2+HDRUyWBPMjkCp5RWi39G
7HAe8E/eLLcZsg0CBVzl1Ejro8Py/HMZuhfNOfarmXzc01jCjK54XdkuJJ0EZ6UR
jtm2/fgVmQzHAecHdJLYnyJbzC7nveMKuS7CWRF1b0BD/ASPuRBIAdCe7KXKyU+j
kl5lDsHfi9ZEolN6su2GyjRPtGbWPQNgpAUfi9gkkyqh9ofSeCO38rh3egJLK6ez
EBoXXI4fSaBbu8oDLEsp
-----END CERTIFICATE-----
