Certificate:
    Data:
        Version: 1 (0x0)
        Serial Number: 0 (0x0)
        Signature Algorithm: sha1WithRSAEncryption
        Issuer: C=JP, ST=Shimane, L=Matz-e city, O=Ruby Core Team, CN=Ruby Test CA/emailAddress=security@ruby-lang.org
        Validity
            Not Before: Jan  3 01:34:17 2014 GMT
            Not After : Jan  2 01:34:17 2019 GMT
        Subject: C=JP, ST=Shimane, O=Ruby Core Team, OU=Ruby Test, CN=localhost
        Subject Public Key Info:
            Public Key Algorithm: rsaEncryption
            RSA Public Key: (1024 bit)
                Modulus (1024 bit):
                    00:db:75:d0:45:de:b1:df:bf:71:a0:0e:b0:a5:e6:
                    bc:f4:1c:9d:e5:25:67:64:c5:7b:cb:f1:af:c6:be:
                    9a:aa:ea:7e:0f:cc:05:af:ef:40:69:06:b2:c9:13:
                    9d:7e:eb:a2:06:e2:ea:7d:07:c7:c7:99:c7:fb:d5:
                    b8:eb:63:77:62:2b:18:12:c3:53:58:d0:f5:c7:40:
                    0c:01:d1:26:82:34:16:09:e3:dc:65:f4:dc:bb:5d:
                    a5:41:60:e7:a9:74:ba:d7:4c:b6:a3:9c:c5:8c:89:
                    af:cb:e8:9f:05:fe:ea:fe:64:24:bf:e7:ed:e3:f6:
                    d0:fc:d6:eb:fc:06:82:10:fb
                Exponent: 65537 (0x10001)
    Signature Algorithm: sha1WithRSAEncryption
        85:f5:d3:05:8b:8c:f4:43:1c:88:f2:8f:b2:f2:93:77:b7:3d:
        95:c6:a0:34:bc:33:6a:d8:85:5f:3e:86:08:10:c5:5c:c1:76:
        a3:53:3c:dc:38:98:23:97:e7:da:21:ac:e8:4d:3c:96:70:29:
        ff:ff:1e:4a:9a:17:2b:db:04:62:b9:ef:ab:ea:a7:a5:e8:7c:
        b1:d5:ed:30:a8:6c:78:de:51:7e:e3:8a:c2:a4:64:a8:63:a2:
        bc:fd:43:9c:f3:55:7d:54:c9:6a:d8:53:1c:4b:6b:03:aa:b6:
        19:e6:a4:4f:47:00:96:c5:42:59:85:4e:c3:4e:cd:41:82:53:
        10:f8
-----BEGIN CERTIFICATE-----
MIICXDCCAcUCAQAwDQYJKoZIhvcNAQEFBQAwgYwxCzAJBgNVBAYTAkpQMRAwDgYD
VQQIEwdTaGltYW5lMRQwEgYDVQQHEwtNYXR6LWUgY2l0eTEXMBUGA1UEChMOUnVi
eSBDb3JlIFRlYW0xFTATBgNVBAMTDFJ1YnkgVGVzdCBDQTElMCMGCSqGSIb3DQEJ
ARYWc2VjdXJpdHlAcnVieS1sYW5nLm9yZzAeFw0xNDAxMDMwMTM0MTdaFw0xOTAx
MDIwMTM0MTdaMGAxCzAJBgNVBAYTAkpQMRAwDgYDVQQIEwdTaGltYW5lMRcwFQYD
VQQKEw5SdWJ5IENvcmUgVGVhbTESMBAGA1UECxMJUnVieSBUZXN0MRIwEAYDVQQD
Ewlsb2NhbGhvc3QwgZ8wDQYJKoZIhvcNAQEBBQADgY0AMIGJAoGBANt10EXesd+/
caAOsKXmvPQcneUlZ2TFe8vxr8a+mqrqfg/MBa/vQGkGsskTnX7rogbi6n0Hx8eZ
x/vVuOtjd2IrGBLDU1jQ9cdADAHRJoI0Fgnj3GX03LtdpUFg56l0utdMtqOcxYyJ
r8vonwX+6v5kJL/n7eP20PzW6/wGghD7AgMBAAEwDQYJKoZIhvcNAQEFBQADgYEA
hfXTBYuM9EMciPKPsvKTd7c9lcagNLwzatiFXz6GCBDFXMF2o1M83DiYI5fn2iGs
6E08lnAp//8eSpoXK9sEYrnvq+qnpeh8sdXtMKhseN5RfuOKwqRkqGOivP1DnPNV
fVTJathTHEtrA6q2GeakT0cAlsVCWYVOw07NQYJTEPg=
-----END CERTIFICATE-----
