Certificate:
    Data:
        Version: 1 (0x0)
        Serial Number: 0 (0x0)
        Signature Algorithm: sha256WithRSAEncryption
        Issuer: C = JP, ST = Shimane, L = Matz-e city, O = Ruby Core Team, CN = Ruby Test CA, emailAddress = security@ruby-lang.org
        Validity
            Not Before: Jan  1 11:02:41 2024 GMT
            Not After : Dec 30 11:02:41 2028 GMT
        Subject: C = JP, ST = Shimane, O = Ruby Core Team, OU = Ruby Test, CN = localhost
        Subject Public Key Info:
            Public Key Algorithm: rsaEncryption
                Public-Key: (2048 bit)
                Modulus:
                    00:e8:da:9c:01:2e:2b:10:ec:49:cd:5e:07:13:07:
                    9c:70:9e:c6:74:bc:13:c2:e1:6f:c6:82:fd:e3:48:
                    e0:2c:a5:68:c7:9e:42:de:60:54:65:e6:6a:14:57:
                    7a:30:d0:cc:b5:b6:d9:c3:d2:df:c9:25:97:54:67:
                    cf:f6:be:5e:cb:8b:ee:03:c5:e1:e2:f9:e7:f7:d1:
                    0c:47:f0:b8:da:33:5a:ad:41:ad:e7:b5:a2:7b:b7:
                    bf:30:da:60:f8:e3:54:a2:bc:3a:fd:1b:74:d9:dc:
                    74:42:e9:29:be:df:ac:b4:4f:eb:32:f4:06:f1:e1:
                    8c:4b:a8:8b:fb:29:e7:b1:bf:1d:01:ee:73:0f:f9:
                    40:dc:d5:15:79:d9:c6:73:d0:c0:dd:cb:e4:da:19:
                    47:80:c6:14:04:72:fd:9a:7c:8f:11:82:76:49:04:
                    79:cc:f2:5c:31:22:95:13:3e:5d:40:a6:4d:e0:a3:
                    02:26:7d:52:3b:bb:ed:65:a1:0f:ed:6b:b0:3c:d4:
                    de:61:15:5e:d3:dd:68:09:9f:4a:57:a5:c2:a9:6d:
                    86:92:c5:f4:a4:d4:b7:13:3b:52:63:24:05:e2:cc:
                    e3:8a:3c:d4:35:34:2b:10:bb:58:72:e7:e1:8d:1d:
                    74:8c:61:16:20:3d:d0:1c:4e:8f:6e:fd:fe:64:10:
                    4f:41
                Exponent: 65537 (0x10001)
    Signature Algorithm: sha256WithRSAEncryption
    Signature Value:
        36:63:a3:6f:e6:4d:ff:a9:43:81:8d:9d:84:42:83:57:c9:e0:
        c6:0a:41:f5:ea:95:de:fa:65:77:e9:c6:33:b9:bb:65:f8:75:
        cc:23:fb:78:96:20:c6:72:ec:69:5f:5c:a5:b6:78:f6:6a:0e:
        84:7c:8b:d4:78:a4:29:f3:fa:ce:b8:d4:17:92:ca:cb:17:b5:
        52:6d:bc:db:f3:f1:60:dd:dd:23:c5:f2:a3:8d:db:18:27:9a:
        a4:5c:1f:1e:2c:62:6d:78:6a:a2:54:a6:8d:02:97:15:00:87:
        af:fb:c8:f1:8f:24:c2:2b:19:33:0b:c9:3c:5e:7d:6e:4f:aa:
        c1:d8:29:88:e2:43:33:0f:51:cd:12:1c:cd:95:47:6e:a9:ab:
        10:aa:d8:34:04:3f:ee:be:ab:54:f9:e5:e5:09:f9:10:b8:3b:
        ab:22:77:74:8e:95:ec:98:1b:1d:28:30:f7:51:62:a0:98:6e:
        8e:80:09:9c:34:e9:48:4b:33:db:66:98:e5:67:13:b9:9d:42:
        c3:45:a9:8b:ba:12:5a:1a:14:d3:21:dc:b7:c6:2b:11:7a:3e:
        90:1f:42:3e:aa:68:55:a3:dd:07:12:89:9a:a0:2a:9d:9e:51:
        7d:4c:98:71:b5:bf:c2:fb:80:c3:18:02:ea:a3:0b:8d:6a:bb:
        c7:67:a3:f7
-----BEGIN CERTIFICATE-----
MIIDYTCCAkkCAQAwDQYJKoZIhvcNAQELBQAwgYwxCzAJBgNVBAYTAkpQMRAwDgYD
VQQIDAdTaGltYW5lMRQwEgYDVQQHDAtNYXR6LWUgY2l0eTEXMBUGA1UECgwOUnVi
eSBDb3JlIFRlYW0xFTATBgNVBAMMDFJ1YnkgVGVzdCBDQTElMCMGCSqGSIb3DQEJ
ARYWc2VjdXJpdHlAcnVieS1sYW5nLm9yZzAeFw0yNDAxMDExMTAyNDFaFw0yODEy
MzAxMTAyNDFaMGAxCzAJBgNVBAYTAkpQMRAwDgYDVQQIDAdTaGltYW5lMRcwFQYD
VQQKDA5SdWJ5IENvcmUgVGVhbTESMBAGA1UECwwJUnVieSBUZXN0MRIwEAYDVQQD
DAlsb2NhbGhvc3QwggEiMA0GCSqGSIb3DQEBAQUAA4IBDwAwggEKAoIBAQDo2pwB
LisQ7EnNXgcTB5xwnsZ0vBPC4W/Ggv3jSOAspWjHnkLeYFRl5moUV3ow0My1ttnD
0t/JJZdUZ8/2vl7Li+4DxeHi+ef30QxH8LjaM1qtQa3ntaJ7t78w2mD441SivDr9
G3TZ3HRC6Sm+36y0T+sy9Abx4YxLqIv7Keexvx0B7nMP+UDc1RV52cZz0MDdy+Ta
GUeAxhQEcv2afI8RgnZJBHnM8lwxIpUTPl1Apk3gowImfVI7u+1loQ/ta7A81N5h
FV7T3WgJn0pXpcKpbYaSxfSk1LcTO1JjJAXizOOKPNQ1NCsQu1hy5+GNHXSMYRYg
PdAcTo9u/f5kEE9BAgMBAAEwDQYJKoZIhvcNAQELBQADggEBADZjo2/mTf+pQ4GN
nYRCg1fJ4MYKQfXqld76ZXfpxjO5u2X4dcwj+3iWIMZy7GlfXKW2ePZqDoR8i9R4
pCnz+s641BeSyssXtVJtvNvz8WDd3SPF8qON2xgnmqRcHx4sYm14aqJUpo0ClxUA
h6/7yPGPJMIrGTMLyTxefW5PqsHYKYjiQzMPUc0SHM2VR26pqxCq2DQEP+6+q1T5
5eUJ+RC4O6sid3SOleyYGx0oMPdRYqCYbo6ACZw06UhLM9tmmOVnE7mdQsNFqYu6
EloaFNMh3LfGKxF6PpAfQj6qaFWj3QcSiZqgKp2eUX1MmHG1v8L7gMMYAuqjC41q
u8dno/c=
-----END CERTIFICATE-----
