Certificate:
    Data:
        Version: 3 (0x2)
        Serial Number: 0 (0x0)
        Signature Algorithm: sha256WithRSAEncryption
        Issuer: C=JP, ST=Tokyo, O=RubyGemsTest, CN=CA
        Validity
            Not Before: Jan  1 00:00:00 2009 GMT
            Not After : Dec 31 23:59:59 2049 GMT
        Subject: C=JP, ST=Tokyo, O=RubyGemsTest, CN=CA
        Subject Public Key Info:
            Public Key Algorithm: rsaEncryption
                RSA Public-Key: (2048 bit)
                Modulus:
                    00:c8:19:2c:5a:1d:4d:2a:65:1d:9a:0b:d6:3a:5c:
                    5f:54:90:ac:17:6f:58:18:8f:e6:0f:33:36:ca:a0:
                    92:02:b8:49:85:96:e9:74:16:14:40:67:98:4a:1f:
                    4d:1c:d8:0b:c4:4e:f8:78:0a:68:70:39:d8:66:64:
                    c6:d5:ca:49:e9:02:c7:1a:1c:03:ba:a1:85:68:0a:
                    03:05:27:b5:7f:97:21:94:20:f3:fe:ea:2e:f5:2e:
                    99:34:6b:e0:e7:96:ca:51:4e:4d:40:48:09:d6:5f:
                    64:7b:e5:df:eb:3d:44:bf:42:25:f7:84:c7:2d:22:
                    e0:7f:00:37:c6:c3:16:75:75:37:6a:e5:56:da:1c:
                    77:37:3c:00:d3:1f:f4:9d:3b:27:08:ff:cd:cf:1e:
                    60:74:65:90:c2:59:b4:12:3e:a0:7f:22:47:87:ff:
                    52:f3:47:39:d1:91:02:1c:bb:8c:c9:20:1f:00:db:
                    d1:3a:b0:e0:ba:ee:55:05:8f:1a:f8:1e:dd:6d:83:
                    1c:1d:18:01:44:92:27:22:f1:2a:07:fe:43:83:08:
                    82:d3:2b:f1:ec:b1:68:b3:f8:94:1b:81:29:54:01:
                    56:12:54:66:ba:60:e7:5c:27:04:4d:a3:61:e3:f9:
                    8f:86:53:0b:83:eb:1f:1d:89:0c:83:66:88:c8:50:
                    8d:c5
                Exponent: 65537 (0x10001)
        X509v3 extensions:
            X509v3 Subject Key Identifier: 
                D6:DB:87:AD:D3:45:FC:D4:8D:6B:2B:97:F4:CF:95:08:B6:FA:62:A4
            X509v3 Authority Key Identifier: 
                keyid:D6:DB:87:AD:D3:45:FC:D4:8D:6B:2B:97:F4:CF:95:08:B6:FA:62:A4

            X509v3 Basic Constraints: critical
                CA:TRUE
    Signature Algorithm: sha256WithRSAEncryption
         06:92:f7:9a:0f:40:da:1a:7f:9f:0c:9e:04:37:4d:be:a4:1e:
         86:65:b3:4a:be:87:13:a1:e4:6b:3b:d6:58:9d:ca:f8:ba:6d:
         e4:dd:de:c5:e3:a2:ec:ef:32:2d:c0:06:01:3a:d5:81:5a:e1:
         e4:f7:5f:68:67:ea:cd:28:90:b1:9c:82:d3:4e:00:51:b6:eb:
         d5:8d:ec:ab:c3:18:b2:8b:8d:5b:63:6d:f8:f5:40:c6:c6:7e:
         72:7b:ed:98:c5:5e:24:b9:ad:4f:5b:8f:1d:53:a3:d7:6a:4f:
         07:2e:6a:b6:63:5c:dc:05:22:ac:77:af:b0:72:9d:39:6f:77:
         9c:45:8b:ad:de:e8:bf:6a:b5:87:0b:58:47:af:11:1a:9e:84:
         25:21:68:48:2a:b3:3c:5a:97:54:20:03:bd:87:34:dd:db:24:
         a6:c7:50:e9:6c:87:55:f2:e5:33:9c:83:8f:8c:9e:f3:3a:38:
         a0:92:a1:a7:c4:89:31:bd:33:83:11:dd:ad:bb:e0:47:19:bb:
         62:6c:49:58:b3:13:12:c3:d0:dd:02:5f:6f:4f:13:07:6d:aa:
         7b:2c:46:5a:74:52:6d:13:10:9c:f7:3d:5d:84:5b:b8:5b:a9:
         c5:ae:56:4b:9a:8c:e2:fd:7f:55:80:cb:b0:2d:56:d7:a4:3c:
         cf:3c:b2:ff
-----BEGIN CERTIFICATE-----
MIIDUDCCAjigAwIBAgIBADANBgkqhkiG9w0BAQsFADBBMQswCQYDVQQGEwJKUDEO
MAwGA1UECAwFVG9reW8xFTATBgNVBAoMDFJ1YnlHZW1zVGVzdDELMAkGA1UEAwwC
Q0EwHhcNMDkwMTAxMDAwMDAwWhcNNDkxMjMxMjM1OTU5WjBBMQswCQYDVQQGEwJK
UDEOMAwGA1UECAwFVG9reW8xFTATBgNVBAoMDFJ1YnlHZW1zVGVzdDELMAkGA1UE
AwwCQ0EwggEiMA0GCSqGSIb3DQEBAQUAA4IBDwAwggEKAoIBAQDIGSxaHU0qZR2a
C9Y6XF9UkKwXb1gYj+YPMzbKoJICuEmFlul0FhRAZ5hKH00c2AvETvh4CmhwOdhm
ZMbVyknpAscaHAO6oYVoCgMFJ7V/lyGUIPP+6i71Lpk0a+DnlspRTk1ASAnWX2R7
5d/rPUS/QiX3hMctIuB/ADfGwxZ1dTdq5VbaHHc3PADTH/SdOycI/83PHmB0ZZDC
WbQSPqB/IkeH/1LzRznRkQIcu4zJIB8A29E6sOC67lUFjxr4Ht1tgxwdGAFEkici
8SoH/kODCILTK/HssWiz+JQbgSlUAVYSVGa6YOdcJwRNo2Hj+Y+GUwuD6x8diQyD
ZojIUI3FAgMBAAGjUzBRMB0GA1UdDgQWBBTW24et00X81I1rK5f0z5UItvpipDAf
BgNVHSMEGDAWgBTW24et00X81I1rK5f0z5UItvpipDAPBgNVHRMBAf8EBTADAQH/
MA0GCSqGSIb3DQEBCwUAA4IBAQAGkveaD0DaGn+fDJ4EN02+pB6GZbNKvocToeRr
O9ZYncr4um3k3d7F46Ls7zItwAYBOtWBWuHk919oZ+rNKJCxnILTTgBRtuvVjeyr
wxiyi41bY2349UDGxn5ye+2YxV4kua1PW48dU6PXak8HLmq2Y1zcBSKsd6+wcp05
b3ecRYut3ui/arWHC1hHrxEanoQlIWhIKrM8WpdUIAO9hzTd2ySmx1DpbIdV8uUz
nIOPjJ7zOjigkqGnxIkxvTODEd2tu+BHGbtibElYsxMSw9DdAl9vTxMHbap7LEZa
dFJtExCc9z1dhFu4W6nFrlZLmozi/X9VgMuwLVbXpDzPPLL/
-----END CERTIFICATE-----
