This CA certificate is for verifying HTTPS connection to;
  - https://d2chzxaqi4y7f8.cloudfront.net/ (prepared by AWS)

Certificate:
    Data:
        Version: 3 (0x2)
        Serial Number: 927650371 (0x374ad243)
    Signature Algorithm: sha1WithRSAEncryption
        Issuer: C=US, O=Entrust.net, OU=www.entrust.net/CPS incorp. by ref. (limits liab.), OU=(c) 1999 Entrust.net Limited, CN=Entrust.net Secure Server Certification Authority
        Validity
            Not Before: May 25 16:09:40 1999 GMT
            Not After : May 25 16:39:40 2019 GMT
        Subject: C=US, O=Entrust.net, OU=www.entrust.net/CPS incorp. by ref. (limits liab.), OU=(c) 1999 Entrust.net Limited, CN=Entrust.net Secure Server Certification Authority
        Subject Public Key Info:
            Public Key Algorithm: rsaEncryption
                Public-Key: (1024 bit)
                Modulus:
                    00:cd:28:83:34:54:1b:89:f3:0f:af:37:91:31:ff:
                    af:31:60:c9:a8:e8:b2:10:68:ed:9f:e7:93:36:f1:
                    0a:64:bb:47:f5:04:17:3f:23:47:4d:c5:27:19:81:
                    26:0c:54:72:0d:88:2d:d9:1f:9a:12:9f:bc:b3:71:
                    d3:80:19:3f:47:66:7b:8c:35:28:d2:b9:0a:df:24:
                    da:9c:d6:50:79:81:7a:5a:d3:37:f7:c2:4a:d8:29:
                    92:26:64:d1:e4:98:6c:3a:00:8a:f5:34:9b:65:f8:
                    ed:e3:10:ff:fd:b8:49:58:dc:a0:de:82:39:6b:81:
                    b1:16:19:61:b9:54:b6:e6:43
                Exponent: 3 (0x3)
        X509v3 extensions:
            Netscape Cert Type: 
                SSL CA, S/MIME CA, Object Signing CA
            X509v3 CRL Distribution Points: 

                Full Name:
                  DirName: C = US, O = Entrust.net, OU = www.entrust.net/CPS incorp. by ref. (limits liab.), OU = (c) 1999 Entrust.net Limited, CN = Entrust.net Secure Server Certification Authority, CN = CRL1

                Full Name:
                  URI:http://www.entrust.net/CRL/net1.crl

            X509v3 Private Key Usage Period: 
                Not Before: May 25 16:09:40 1999 GMT, Not After: May 25 16:09:40 2019 GMT
            X509v3 Key Usage: 
                Certificate Sign, CRL Sign
            X509v3 Authority Key Identifier: 
                keyid:F0:17:62:13:55:3D:B3:FF:0A:00:6B:FB:50:84:97:F3:ED:62:D0:1A

            X509v3 Subject Key Identifier: 
                F0:17:62:13:55:3D:B3:FF:0A:00:6B:FB:50:84:97:F3:ED:62:D0:1A
            X509v3 Basic Constraints: 
                CA:TRUE
            1.2.840.113533.7.65.0: 
                0
..V4.0....
    Signature Algorithm: sha1WithRSAEncryption
         90:dc:30:02:fa:64:74:c2:a7:0a:a5:7c:21:8d:34:17:a8:fb:
         47:0e:ff:25:7c:8d:13:0a:fb:e4:98:b5:ef:8c:f8:c5:10:0d:
         f7:92:be:f1:c3:d5:d5:95:6a:04:bb:2c:ce:26:36:65:c8:31:
         c6:e7:ee:3f:e3:57:75:84:7a:11:ef:46:4f:18:f4:d3:98:bb:
         a8:87:32:ba:72:f6:3c:e2:3d:9f:d7:1d:d9:c3:60:43:8c:58:
         0e:22:96:2f:62:a3:2c:1f:ba:ad:05:ef:ab:32:78:87:a0:54:
         73:19:b5:5c:05:f9:52:3e:6d:2d:45:0b:f7:0a:93:ea:ed:06:
         f9:b2

-----BEGIN CERTIFICATE-----
MIIE2DCCBEGgAwIBAgIEN0rSQzANBgkqhkiG9w0BAQUFADCBwzELMAkGA1UEBhMC
VVMxFDASBgNVBAoTC0VudHJ1c3QubmV0MTswOQYDVQQLEzJ3d3cuZW50cnVzdC5u
ZXQvQ1BTIGluY29ycC4gYnkgcmVmLiAobGltaXRzIGxpYWIuKTElMCMGA1UECxMc
KGMpIDE5OTkgRW50cnVzdC5uZXQgTGltaXRlZDE6MDgGA1UEAxMxRW50cnVzdC5u
ZXQgU2VjdXJlIFNlcnZlciBDZXJ0aWZpY2F0aW9uIEF1dGhvcml0eTAeFw05OTA1
MjUxNjA5NDBaFw0xOTA1MjUxNjM5NDBaMIHDMQswCQYDVQQGEwJVUzEUMBIGA1UE
ChMLRW50cnVzdC5uZXQxOzA5BgNVBAsTMnd3dy5lbnRydXN0Lm5ldC9DUFMgaW5j
b3JwLiBieSByZWYuIChsaW1pdHMgbGlhYi4pMSUwIwYDVQQLExwoYykgMTk5OSBF
bnRydXN0Lm5ldCBMaW1pdGVkMTowOAYDVQQDEzFFbnRydXN0Lm5ldCBTZWN1cmUg
U2VydmVyIENlcnRpZmljYXRpb24gQXV0aG9yaXR5MIGdMA0GCSqGSIb3DQEBAQUA
A4GLADCBhwKBgQDNKIM0VBuJ8w+vN5Ex/68xYMmo6LIQaO2f55M28Qpku0f1BBc/
I0dNxScZgSYMVHINiC3ZH5oSn7yzcdOAGT9HZnuMNSjSuQrfJNqc1lB5gXpa0zf3
wkrYKZImZNHkmGw6AIr1NJtl+O3jEP/9uElY3KDegjlrgbEWGWG5VLbmQwIBA6OC
AdcwggHTMBEGCWCGSAGG+EIBAQQEAwIABzCCARkGA1UdHwSCARAwggEMMIHeoIHb
oIHYpIHVMIHSMQswCQYDVQQGEwJVUzEUMBIGA1UEChMLRW50cnVzdC5uZXQxOzA5
BgNVBAsTMnd3dy5lbnRydXN0Lm5ldC9DUFMgaW5jb3JwLiBieSByZWYuIChsaW1p
dHMgbGlhYi4pMSUwIwYDVQQLExwoYykgMTk5OSBFbnRydXN0Lm5ldCBMaW1pdGVk
MTowOAYDVQQDEzFFbnRydXN0Lm5ldCBTZWN1cmUgU2VydmVyIENlcnRpZmljYXRp
b24gQXV0aG9yaXR5MQ0wCwYDVQQDEwRDUkwxMCmgJ6AlhiNodHRwOi8vd3d3LmVu
dHJ1c3QubmV0L0NSTC9uZXQxLmNybDArBgNVHRAEJDAigA8xOTk5MDUyNTE2MDk0
MFqBDzIwMTkwNTI1MTYwOTQwWjALBgNVHQ8EBAMCAQYwHwYDVR0jBBgwFoAU8Bdi
E1U9s/8KAGv7UISX8+1i0BowHQYDVR0OBBYEFPAXYhNVPbP/CgBr+1CEl/PtYtAa
MAwGA1UdEwQFMAMBAf8wGQYJKoZIhvZ9B0EABAwwChsEVjQuMAMCBJAwDQYJKoZI
hvcNAQEFBQADgYEAkNwwAvpkdMKnCqV8IY00F6j7Rw7/JXyNEwr75Ji174z4xRAN
95K+8cPV1ZVqBLssziY2ZcgxxufuP+NXdYR6Ee9GTxj005i7qIcyunL2POI9n9cd
2cNgQ4xYDiKWL2KjLB+6rQXvqzJ4h6BUcxm1XAX5Uj5tLUUL9wqT6u0G+bI=
-----END CERTIFICATE-----
