This CA certificate is for verifying HTTPS connection to;
  - https://s3.amazon.com/ (prepared by AWS)

Certificate:
    Data:
        Version: 1 (0x0)
        Serial Number:
            7d:d9:fe:07:cf:a8:1e:b7:10:79:67:fb:a7:89:34:c6
    Signature Algorithm: sha1WithRSAEncryption
        Issuer: C=US, O=VeriSign, Inc., OU=Class 3 Public Primary Certification Authority - G2, OU=(c) 1998 VeriSign, Inc. - For authorized use only, OU=VeriSign Trust Network
        Validity
            Not Before: May 18 00:00:00 1998 GMT
            Not After : Aug  1 23:59:59 2028 GMT
        Subject: C=US, O=VeriSign, Inc., OU=Class 3 Public Primary Certification Authority - G2, OU=(c) 1998 VeriSign, Inc. - For authorized use only, OU=VeriSign Trust Network
        Subject Public Key Info:
            Public Key Algorithm: rsaEncryption
                Public-Key: (1024 bit)
                Modulus:
                    00:cc:5e:d1:11:5d:5c:69:d0:ab:d3:b9:6a:4c:99:
                    1f:59:98:30:8e:16:85:20:46:6d:47:3f:d4:85:20:
                    84:e1:6d:b3:f8:a4:ed:0c:f1:17:0f:3b:f9:a7:f9:
                    25:d7:c1:cf:84:63:f2:7c:63:cf:a2:47:f2:c6:5b:
                    33:8e:64:40:04:68:c1:80:b9:64:1c:45:77:c7:d8:
                    6e:f5:95:29:3c:50:e8:34:d7:78:1f:a8:ba:6d:43:
                    91:95:8f:45:57:5e:7e:c5:fb:ca:a4:04:eb:ea:97:
                    37:54:30:6f:bb:01:47:32:33:cd:dc:57:9b:64:69:
                    61:f8:9b:1d:1c:89:4f:5c:67
                Exponent: 65537 (0x10001)
    Signature Algorithm: sha1WithRSAEncryption
         51:4d:cd:be:5c:cb:98:19:9c:15:b2:01:39:78:2e:4d:0f:67:
         70:70:99:c6:10:5a:94:a4:53:4d:54:6d:2b:af:0d:5d:40:8b:
         64:d3:d7:ee:de:56:61:92:5f:a6:c4:1d:10:61:36:d3:2c:27:
         3c:e8:29:09:b9:11:64:74:cc:b5:73:9f:1c:48:a9:bc:61:01:
         ee:e2:17:a6:0c:e3:40:08:3b:0e:e7:eb:44:73:2a:9a:f1:69:
         92:ef:71:14:c3:39:ac:71:a7:91:09:6f:e4:71:06:b3:ba:59:
         57:26:79:00:f6:f8:0d:a2:33:30:28:d4:aa:58:a0:9d:9d:69:
         91:fd

-----BEGIN CERTIFICATE-----
MIIDAjCCAmsCEH3Z/gfPqB63EHln+6eJNMYwDQYJKoZIhvcNAQEFBQAwgcExCzAJ
BgNVBAYTAlVTMRcwFQYDVQQKEw5WZXJpU2lnbiwgSW5jLjE8MDoGA1UECxMzQ2xh
c3MgMyBQdWJsaWMgUHJpbWFyeSBDZXJ0aWZpY2F0aW9uIEF1dGhvcml0eSAtIEcy
MTowOAYDVQQLEzEoYykgMTk5OCBWZXJpU2lnbiwgSW5jLiAtIEZvciBhdXRob3Jp
emVkIHVzZSBvbmx5MR8wHQYDVQQLExZWZXJpU2lnbiBUcnVzdCBOZXR3b3JrMB4X
DTk4MDUxODAwMDAwMFoXDTI4MDgwMTIzNTk1OVowgcExCzAJBgNVBAYTAlVTMRcw
FQYDVQQKEw5WZXJpU2lnbiwgSW5jLjE8MDoGA1UECxMzQ2xhc3MgMyBQdWJsaWMg
UHJpbWFyeSBDZXJ0aWZpY2F0aW9uIEF1dGhvcml0eSAtIEcyMTowOAYDVQQLEzEo
YykgMTk5OCBWZXJpU2lnbiwgSW5jLiAtIEZvciBhdXRob3JpemVkIHVzZSBvbmx5
MR8wHQYDVQQLExZWZXJpU2lnbiBUcnVzdCBOZXR3b3JrMIGfMA0GCSqGSIb3DQEB
AQUAA4GNADCBiQKBgQDMXtERXVxp0KvTuWpMmR9ZmDCOFoUgRm1HP9SFIIThbbP4
pO0M8RcPO/mn+SXXwc+EY/J8Y8+iR/LGWzOOZEAEaMGAuWQcRXfH2G71lSk8UOg0
13gfqLptQ5GVj0VXXn7F+8qkBOvqlzdUMG+7AUcyM83cV5tkaWH4mx0ciU9cZwID
AQABMA0GCSqGSIb3DQEBBQUAA4GBAFFNzb5cy5gZnBWyATl4Lk0PZ3BwmcYQWpSk
U01UbSuvDV1Ai2TT1+7eVmGSX6bEHRBhNtMsJzzoKQm5EWR0zLVznxxIqbxhAe7i
F6YM40AIOw7n60RzKprxaZLvcRTDOaxxp5EJb+RxBrO6WVcmeQD2+A2iMzAo1KpY
oJ2daZH9
-----END CERTIFICATE-----
